target datalayout = "e-m:e-p270:32:32-p271:32:32-p272:64:64-i64:64-i128:128-f80:128-n8:16:32:64-S128"
target triple = "x86_64-pc-linux-gnu"

%union.pthread_mutex_t = type { %struct.__pthread_mutex_s }
%struct.__pthread_mutex_s = type { i32, i32, i32, i32, i32, i16, i16, %struct.__pthread_internal_list }
%struct.__pthread_internal_list = type { ptr, ptr }
%union.pthread_cond_t = type { %struct.__pthread_cond_s }
%struct.__pthread_cond_s = type { %union.__atomic_wide_counter, %union.__atomic_wide_counter, [2 x i32], [2 x i32], i32, i32, [2 x i32] }
%union.__atomic_wide_counter = type { i64 }
%struct.srun_job = type { %struct.slurm_step_id_msg, i32, i32, ptr, i32, i32, i32, i32, ptr, ptr, ptr, ptr, i32, i32, i32, i16, i16, i16, i16, i32, %union.pthread_mutex_t, %union.pthread_cond_t, i32, ptr, ptr, ptr, ptr, ptr, ptr, i32, i16, i16, i16, ptr, ptr, ptr, ptr, i32, ptr, i32, ptr }
%struct.slurm_step_id_msg = type { i64, i32, i32, i32 }

@local_job_list = internal global ptr null, align 8
@.str.27 = private unnamed_addr constant [38 x i8] c"%s: local_job_list does not exist yet\00", align 1
@__func__.launch_g_fwd_signal = private unnamed_addr constant [20 x i8] c"launch_g_fwd_signal\00", align 1

; Function Attrs: nounwind uwtable
define dso_local void @launch_g_fwd_signal(i32 noundef %0) #0 {
  %2 = alloca i32, align 4
  %3 = alloca ptr, align 8
  %4 = alloca ptr, align 8
  %5 = alloca i32, align 4
  store i32 %0, ptr %2, align 4
  call void @llvm.lifetime.start.p0(i64 8, ptr %3) #10
  call void @llvm.lifetime.start.p0(i64 8, ptr %4) #10
  %6 = load ptr, ptr @local_job_list, align 8
  %7 = icmp ne ptr %6, null
  br i1 %7, label %19, label %8

8:                                                ; preds = %1
  br label %9

9:                                                ; preds = %8
  br label %10

10:                                               ; preds = %9
  %11 = call i32 @get_log_level()
  %12 = icmp sge i32 %11, 5
  br i1 %12, label %13, label %14

13:                                               ; preds = %10
  call void (i32, ptr, ...) @log_var(i32 noundef 5, ptr noundef @.str.27, ptr noundef @__func__.launch_g_fwd_signal)
  br label %14

14:                                               ; preds = %13, %10
  br label %15

15:                                               ; preds = %14
  br label %16

16:                                               ; preds = %15
  br label %17

17:                                               ; preds = %16
  br label %18

18:                                               ; preds = %17
  store i32 1, ptr %5, align 4
  br label %40

19:                                               ; preds = %1
  %20 = load ptr, ptr @local_job_list, align 8
  %21 = call ptr @list_iterator_create(ptr noundef %20)
  store ptr %21, ptr %4, align 8
  br label %22

22:                                               ; preds = %37, %19
  %23 = load ptr, ptr %4, align 8
  %24 = call ptr @list_next(ptr noundef %23)
  store ptr %24, ptr %3, align 8
  %25 = icmp ne ptr %24, null
  br i1 %25, label %26, label %38

26:                                               ; preds = %22
  %27 = load i32, ptr %2, align 4
  switch i32 %27, label %32 [
    i32 9, label %28
  ]

28:                                               ; preds = %26
  %29 = load ptr, ptr %3, align 8
  %30 = getelementptr inbounds nuw %struct.srun_job, ptr %29, i32 0, i32 33
  %31 = load ptr, ptr %30, align 8
  call void @slurm_step_launch_abort(ptr noundef %31)
  br label %37

32:                                               ; preds = %26
  %33 = load ptr, ptr %3, align 8
  %34 = getelementptr inbounds nuw %struct.srun_job, ptr %33, i32 0, i32 33
  %35 = load ptr, ptr %34, align 8
  %36 = load i32, ptr %2, align 4
  call void @slurm_step_launch_fwd_signal(ptr noundef %35, i32 noundef %36)
  br label %37

37:                                               ; preds = %32, %28
  br label %22, !llvm.loop !19

38:                                               ; preds = %22
  %39 = load ptr, ptr %4, align 8
  call void @list_iterator_destroy(ptr noundef %39)
  store i32 0, ptr %5, align 4
  br label %40

40:                                               ; preds = %38, %18
  call void @llvm.lifetime.end.p0(i64 8, ptr %4) #10
  call void @llvm.lifetime.end.p0(i64 8, ptr %3) #10
  %41 = load i32, ptr %5, align 4
  switch i32 %41, label %43 [
    i32 0, label %42
    i32 1, label %42
  ]

42:                                               ; preds = %40, %40
  ret void

43:                                               ; preds = %40
  unreachable
}