; Function Attrs: nounwind uwtable
define dso_local void @launch_g_fwd_signal(i32 noundef %0) #0 {
  %2 = load ptr, ptr @local_job_list, align 8
  %.not = icmp eq ptr %2, null
  br i1 %.not, label %3, label %7

3:                                                ; preds = %1
  %4 = tail call i32 @get_log_level() #17
  %5 = icmp sgt i32 %4, 4
  br i1 %5, label %6, label %18

6:                                                ; preds = %3
  tail call void (i32, ptr, ...) @log_var(i32 noundef 5, ptr noundef nonnull @.str.27, ptr noundef nonnull @__func__.launch_g_fwd_signal) #17
  br label %18

7:                                                ; preds = %1
  %8 = tail call ptr @list_iterator_create(ptr noundef nonnull %2) #17
  %9 = tail call ptr @list_next(ptr noundef %8) #17
  %.not78 = icmp eq ptr %9, null
  br i1 %.not78, label %._crit_edge, label %.lr.ph

.lr.ph:                                           ; preds = %7
  %cond = icmp eq i32 %0, 9
  br i1 %cond, label %.lr.ph.split.us, label %.lr.ph.split

.lr.ph.split.us:                                  ; preds = %.lr.ph, %.lr.ph.split.us
  %10 = phi ptr [ %13, %.lr.ph.split.us ], [ %9, %.lr.ph ]
  %11 = getelementptr inbounds nuw i8, ptr %10, i64 272
  %12 = load ptr, ptr %11, align 8
  tail call void @slurm_step_launch_abort(ptr noundef %12) #17
  %13 = tail call ptr @list_next(ptr noundef %8) #17
  %.not7.us = icmp eq ptr %13, null
  br i1 %.not7.us, label %._crit_edge, label %.lr.ph.split.us, !llvm.loop !20

.lr.ph.split:                                     ; preds = %.lr.ph, %.lr.ph.split
  %14 = phi ptr [ %17, %.lr.ph.split ], [ %9, %.lr.ph ]
  %15 = getelementptr inbounds nuw i8, ptr %14, i64 272
  %16 = load ptr, ptr %15, align 8
  tail call void @slurm_step_launch_fwd_signal(ptr noundef %16, i32 noundef %0) #17
  %17 = tail call ptr @list_next(ptr noundef %8) #17
  %.not7 = icmp eq ptr %17, null
  br i1 %.not7, label %._crit_edge, label %.lr.ph.split, !llvm.loop !20

._crit_edge:                                      ; preds = %.lr.ph.split, %.lr.ph.split.us, %7
  tail call void @list_iterator_destroy(ptr noundef %8) #17
  br label %18

18:                                               ; preds = %3, %6, %._crit_edge
  ret void
}